
endian:     file format elf64-x86-64


Disassembly of section .init:

0000000000001000 <_init>:
    1000:	f3 0f 1e fa          	endbr64
    1004:	48 83 ec 08          	sub    $0x8,%rsp
    1008:	48 8b 05 c9 2f 00 00 	mov    0x2fc9(%rip),%rax        # 3fd8 <__gmon_start__@Base>
    100f:	48 85 c0             	test   %rax,%rax
    1012:	74 02                	je     1016 <_init+0x16>
    1014:	ff d0                	call   *%rax
    1016:	48 83 c4 08          	add    $0x8,%rsp
    101a:	c3                   	ret

Disassembly of section .plt:

0000000000001020 <_ZNSo3putEc@plt-0x10>:
    1020:	ff 35 ca 2f 00 00    	push   0x2fca(%rip)        # 3ff0 <_GLOBAL_OFFSET_TABLE_+0x8>
    1026:	ff 25 cc 2f 00 00    	jmp    *0x2fcc(%rip)        # 3ff8 <_GLOBAL_OFFSET_TABLE_+0x10>
    102c:	0f 1f 40 00          	nopl   0x0(%rax)

0000000000001030 <_ZNSo3putEc@plt>:
    1030:	ff 25 ca 2f 00 00    	jmp    *0x2fca(%rip)        # 4000 <_ZNSo3putEc@GLIBCXX_3.4>
    1036:	68 00 00 00 00       	push   $0x0
    103b:	e9 e0 ff ff ff       	jmp    1020 <_init+0x20>

0000000000001040 <_ZNSt14basic_ifstreamIcSt11char_traitsIcEE5closeEv@plt>:
    1040:	ff 25 c2 2f 00 00    	jmp    *0x2fc2(%rip)        # 4008 <_ZNSt14basic_ifstreamIcSt11char_traitsIcEE5closeEv@GLIBCXX_3.4>
    1046:	68 01 00 00 00       	push   $0x1
    104b:	e9 d0 ff ff ff       	jmp    1020 <_init+0x20>

0000000000001050 <_ZNSt14basic_ifstreamIcSt11char_traitsIcEED1Ev@plt>:
    1050:	ff 25 ba 2f 00 00    	jmp    *0x2fba(%rip)        # 4010 <_ZNSt14basic_ifstreamIcSt11char_traitsIcEED1Ev@GLIBCXX_3.4>
    1056:	68 02 00 00 00       	push   $0x2
    105b:	e9 c0 ff ff ff       	jmp    1020 <_init+0x20>

0000000000001060 <_ZNSo9_M_insertImEERSoT_@plt>:
    1060:	ff 25 b2 2f 00 00    	jmp    *0x2fb2(%rip)        # 4018 <_ZNSo9_M_insertImEERSoT_@GLIBCXX_3.4.9>
    1066:	68 03 00 00 00       	push   $0x3
    106b:	e9 b0 ff ff ff       	jmp    1020 <_init+0x20>

0000000000001070 <_ZNSt14basic_ofstreamIcSt11char_traitsIcEEC1EPKcSt13_Ios_Openmode@plt>:
    1070:	ff 25 aa 2f 00 00    	jmp    *0x2faa(%rip)        # 4020 <_ZNSt14basic_ofstreamIcSt11char_traitsIcEEC1EPKcSt13_Ios_Openmode@GLIBCXX_3.4>
    1076:	68 04 00 00 00       	push   $0x4
    107b:	e9 a0 ff ff ff       	jmp    1020 <_init+0x20>

0000000000001080 <__stack_chk_fail@plt>:
    1080:	ff 25 a2 2f 00 00    	jmp    *0x2fa2(%rip)        # 4028 <__stack_chk_fail@GLIBC_2.4>
    1086:	68 05 00 00 00       	push   $0x5
    108b:	e9 90 ff ff ff       	jmp    1020 <_init+0x20>

0000000000001090 <_ZSt16__ostream_insertIcSt11char_traitsIcEERSt13basic_ostreamIT_T0_ES6_PKS3_l@plt>:
    1090:	ff 25 9a 2f 00 00    	jmp    *0x2f9a(%rip)        # 4030 <_ZSt16__ostream_insertIcSt11char_traitsIcEERSt13basic_ostreamIT_T0_ES6_PKS3_l@GLIBCXX_3.4.9>
    1096:	68 06 00 00 00       	push   $0x6
    109b:	e9 80 ff ff ff       	jmp    1020 <_init+0x20>

00000000000010a0 <_ZNSo5writeEPKcl@plt>:
    10a0:	ff 25 92 2f 00 00    	jmp    *0x2f92(%rip)        # 4038 <_ZNSo5writeEPKcl@GLIBCXX_3.4>
    10a6:	68 07 00 00 00       	push   $0x7
    10ab:	e9 70 ff ff ff       	jmp    1020 <_init+0x20>

00000000000010b0 <_ZNSt14basic_ofstreamIcSt11char_traitsIcEE5closeEv@plt>:
    10b0:	ff 25 8a 2f 00 00    	jmp    *0x2f8a(%rip)        # 4040 <_ZNSt14basic_ofstreamIcSt11char_traitsIcEE5closeEv@GLIBCXX_3.4>
    10b6:	68 08 00 00 00       	push   $0x8
    10bb:	e9 60 ff ff ff       	jmp    1020 <_init+0x20>

00000000000010c0 <_ZNSt14basic_ofstreamIcSt11char_traitsIcEED1Ev@plt>:
    10c0:	ff 25 82 2f 00 00    	jmp    *0x2f82(%rip)        # 4048 <_ZNSt14basic_ofstreamIcSt11char_traitsIcEED1Ev@GLIBCXX_3.4>
    10c6:	68 09 00 00 00       	push   $0x9
    10cb:	e9 50 ff ff ff       	jmp    1020 <_init+0x20>

00000000000010d0 <_Unwind_Resume@plt>:
    10d0:	ff 25 7a 2f 00 00    	jmp    *0x2f7a(%rip)        # 4050 <_Unwind_Resume@GCC_3.0>
    10d6:	68 0a 00 00 00       	push   $0xa
    10db:	e9 40 ff ff ff       	jmp    1020 <_init+0x20>

00000000000010e0 <_ZNSt14basic_ifstreamIcSt11char_traitsIcEEC1EPKcSt13_Ios_Openmode@plt>:
    10e0:	ff 25 72 2f 00 00    	jmp    *0x2f72(%rip)        # 4058 <_ZNSt14basic_ifstreamIcSt11char_traitsIcEEC1EPKcSt13_Ios_Openmode@GLIBCXX_3.4>
    10e6:	68 0b 00 00 00       	push   $0xb
    10eb:	e9 30 ff ff ff       	jmp    1020 <_init+0x20>

Disassembly of section .text:

00000000000010f0 <main.cold>:
    10f0:	4c 89 ef             	mov    %r13,%rdi
    10f3:	e8 58 ff ff ff       	call   1050 <_ZNSt14basic_ifstreamIcSt11char_traitsIcEED1Ev@plt>
    10f8:	4c 89 e7             	mov    %r12,%rdi
    10fb:	e8 c0 ff ff ff       	call   10c0 <_ZNSt14basic_ofstreamIcSt11char_traitsIcEED1Ev@plt>
    1100:	48 8b 84 24 18 04 00 	mov    0x418(%rsp),%rax
    1107:	00 
    1108:	64 48 2b 04 25 28 00 	sub    %fs:0x28,%rax
    110f:	00 00 
    1111:	75 08                	jne    111b <main.cold+0x2b>
    1113:	48 89 df             	mov    %rbx,%rdi
    1116:	e8 b5 ff ff ff       	call   10d0 <_Unwind_Resume@plt>
    111b:	e8 60 ff ff ff       	call   1080 <__stack_chk_fail@plt>

0000000000001120 <main>:
    1120:	41 57                	push   %r15
    1122:	ba 04 00 00 00       	mov    $0x4,%edx
    1127:	41 56                	push   %r14
    1129:	41 55                	push   %r13
    112b:	41 54                	push   %r12
    112d:	55                   	push   %rbp
    112e:	53                   	push   %rbx
    112f:	48 8d 1d ce 0e 00 00 	lea    0xece(%rip),%rbx        # 2004 <_IO_stdin_used+0x4>
    1136:	48 89 de             	mov    %rbx,%rsi
    1139:	48 81 ec 28 04 00 00 	sub    $0x428,%rsp
    1140:	64 48 8b 04 25 28 00 	mov    %fs:0x28,%rax
    1147:	00 00 
    1149:	48 89 84 24 18 04 00 	mov    %rax,0x418(%rsp)
    1150:	00 
    1151:	31 c0                	xor    %eax,%eax
    1153:	4c 8d 64 24 10       	lea    0x10(%rsp),%r12
    1158:	48 8d 6c 24 0c       	lea    0xc(%rsp),%rbp
    115d:	c7 44 24 0c ef be ad 	movl   $0xdeadbeef,0xc(%rsp)
    1164:	de 
    1165:	4c 89 e7             	mov    %r12,%rdi
    1168:	e8 03 ff ff ff       	call   1070 <_ZNSt14basic_ofstreamIcSt11char_traitsIcEEC1EPKcSt13_Ios_Openmode@plt>
    116d:	ba 04 00 00 00       	mov    $0x4,%edx
    1172:	48 89 ee             	mov    %rbp,%rsi
    1175:	4c 89 e7             	mov    %r12,%rdi
    1178:	e8 23 ff ff ff       	call   10a0 <_ZNSo5writeEPKcl@plt>
    117d:	ba 04 00 00 00       	mov    $0x4,%edx
    1182:	48 89 ee             	mov    %rbp,%rsi
    1185:	4c 89 e7             	mov    %r12,%rdi
    1188:	e8 13 ff ff ff       	call   10a0 <_ZNSo5writeEPKcl@plt>
    118d:	4c 89 e7             	mov    %r12,%rdi
    1190:	e8 1b ff ff ff       	call   10b0 <_ZNSt14basic_ofstreamIcSt11char_traitsIcEE5closeEv@plt>
    1195:	4c 8d ac 24 10 02 00 	lea    0x210(%rsp),%r13
    119c:	00 
    119d:	ba 04 00 00 00       	mov    $0x4,%edx
    11a2:	48 89 de             	mov    %rbx,%rsi
    11a5:	31 ed                	xor    %ebp,%ebp
    11a7:	4c 89 ef             	mov    %r13,%rdi
    11aa:	e8 31 ff ff ff       	call   10e0 <_ZNSt14basic_ifstreamIcSt11char_traitsIcEEC1EPKcSt13_Ios_Openmode@plt>
    11af:	48 8b 84 24 10 02 00 	mov    0x210(%rsp),%rax
    11b6:	00 
    11b7:	48 8b 40 e8          	mov    -0x18(%rax),%rax
    11bb:	48 8b 9c 04 f8 02 00 	mov    0x2f8(%rsp,%rax,1),%rbx
    11c2:	00 
    11c3:	48 85 db             	test   %rbx,%rbx
    11c6:	0f 84 43 02 00 00    	je     140f <main+0x2ef>
    11cc:	48 8b 43 10          	mov    0x10(%rbx),%rax
    11d0:	48 3b 43 18          	cmp    0x18(%rbx),%rax
    11d4:	0f 83 20 02 00 00    	jae    13fa <main+0x2da>
    11da:	44 0f b6 38          	movzbl (%rax),%r15d
    11de:	49 89 de             	mov    %rbx,%r14
    11e1:	49 8b 46 10          	mov    0x10(%r14),%rax
    11e5:	41 c1 e7 18          	shl    $0x18,%r15d
    11e9:	49 3b 46 18          	cmp    0x18(%r14),%rax
    11ed:	0f 83 fa 01 00 00    	jae    13ed <main+0x2cd>
    11f3:	48 83 c0 01          	add    $0x1,%rax
    11f7:	49 89 46 10          	mov    %rax,0x10(%r14)
    11fb:	49 8b 46 10          	mov    0x10(%r14),%rax
    11ff:	49 3b 46 18          	cmp    0x18(%r14),%rax
    1203:	0f 83 b4 02 00 00    	jae    14bd <main+0x39d>
    1209:	0f b6 00             	movzbl (%rax),%eax
    120c:	c1 e0 10             	shl    $0x10,%eax
    120f:	41 09 c7             	or     %eax,%r15d
    1212:	49 8b 46 10          	mov    0x10(%r14),%rax
    1216:	49 3b 46 18          	cmp    0x18(%r14),%rax
    121a:	0f 83 c0 01 00 00    	jae    13e0 <main+0x2c0>
    1220:	48 83 c0 01          	add    $0x1,%rax
    1224:	49 89 46 10          	mov    %rax,0x10(%r14)
    1228:	49 8b 46 10          	mov    0x10(%r14),%rax
    122c:	49 3b 46 18          	cmp    0x18(%r14),%rax
    1230:	0f 83 27 02 00 00    	jae    145d <main+0x33d>
    1236:	0f b6 10             	movzbl (%rax),%edx
    1239:	44 89 f8             	mov    %r15d,%eax
    123c:	88 d4                	mov    %dl,%ah
    123e:	41 89 c7             	mov    %eax,%r15d
    1241:	49 8b 46 10          	mov    0x10(%r14),%rax
    1245:	49 3b 46 18          	cmp    0x18(%r14),%rax
    1249:	0f 83 84 01 00 00    	jae    13d3 <main+0x2b3>
    124f:	48 83 c0 01          	add    $0x1,%rax
    1253:	49 89 46 10          	mov    %rax,0x10(%r14)
    1257:	49 8b 46 10          	mov    0x10(%r14),%rax
    125b:	49 3b 46 18          	cmp    0x18(%r14),%rax
    125f:	0f 83 19 02 00 00    	jae    147e <main+0x35e>
    1265:	0f b6 00             	movzbl (%rax),%eax
    1268:	41 88 c7             	mov    %al,%r15b
    126b:	48 8b 43 10          	mov    0x10(%rbx),%rax
    126f:	48 3b 43 18          	cmp    0x18(%rbx),%rax
    1273:	0f 83 4d 01 00 00    	jae    13c6 <main+0x2a6>
    1279:	48 83 c0 01          	add    $0x1,%rax
    127d:	48 89 43 10          	mov    %rax,0x10(%rbx)
    1281:	48 8b 43 10          	mov    0x10(%rbx),%rax
    1285:	48 3b 43 18          	cmp    0x18(%rbx),%rax
    1289:	0f 83 8e 01 00 00    	jae    141d <main+0x2fd>
    128f:	0f b6 10             	movzbl (%rax),%edx
    1292:	48 8b 43 10          	mov    0x10(%rbx),%rax
    1296:	40 88 d5             	mov    %dl,%bpl
    1299:	48 3b 43 18          	cmp    0x18(%rbx),%rax
    129d:	0f 83 16 01 00 00    	jae    13b9 <main+0x299>
    12a3:	48 83 c0 01          	add    $0x1,%rax
    12a7:	48 89 43 10          	mov    %rax,0x10(%rbx)
    12ab:	48 8b 43 10          	mov    0x10(%rbx),%rax
    12af:	48 3b 43 18          	cmp    0x18(%rbx),%rax
    12b3:	0f 83 84 01 00 00    	jae    143d <main+0x31d>
    12b9:	0f b6 10             	movzbl (%rax),%edx
    12bc:	89 e8                	mov    %ebp,%eax
    12be:	88 d4                	mov    %dl,%ah
    12c0:	89 c5                	mov    %eax,%ebp
    12c2:	48 8b 43 10          	mov    0x10(%rbx),%rax
    12c6:	48 3b 43 18          	cmp    0x18(%rbx),%rax
    12ca:	0f 83 dc 00 00 00    	jae    13ac <main+0x28c>
    12d0:	48 83 c0 01          	add    $0x1,%rax
    12d4:	48 89 43 10          	mov    %rax,0x10(%rbx)
    12d8:	48 8b 43 10          	mov    0x10(%rbx),%rax
    12dc:	48 3b 43 18          	cmp    0x18(%rbx),%rax
    12e0:	0f 83 a6 01 00 00    	jae    148c <main+0x36c>
    12e6:	0f b6 00             	movzbl (%rax),%eax
    12e9:	c1 e0 10             	shl    $0x10,%eax
    12ec:	81 e5 ff ff 00 ff    	and    $0xff00ffff,%ebp
    12f2:	09 c5                	or     %eax,%ebp
    12f4:	48 8b 43 10          	mov    0x10(%rbx),%rax
    12f8:	48 3b 43 18          	cmp    0x18(%rbx),%rax
    12fc:	0f 83 9d 00 00 00    	jae    139f <main+0x27f>
    1302:	48 83 c0 01          	add    $0x1,%rax
    1306:	48 89 43 10          	mov    %rax,0x10(%rbx)
    130a:	48 8b 43 10          	mov    0x10(%rbx),%rax
    130e:	48 3b 43 18          	cmp    0x18(%rbx),%rax
    1312:	0f 83 97 01 00 00    	jae    14af <main+0x38f>
    1318:	0f b6 00             	movzbl (%rax),%eax
    131b:	48 8d 1d 5e 2d 00 00 	lea    0x2d5e(%rip),%rbx        # 4080 <_ZSt4cout@GLIBCXX_3.4>
    1322:	c1 e0 18             	shl    $0x18,%eax
    1325:	81 e5 ff ff ff 00    	and    $0xffffff,%ebp
    132b:	44 89 fe             	mov    %r15d,%esi
    132e:	48 89 df             	mov    %rbx,%rdi
    1331:	09 c5                	or     %eax,%ebp
    1333:	e8 28 fd ff ff       	call   1060 <_ZNSo9_M_insertImEERSoT_@plt>
    1338:	48 89 c7             	mov    %rax,%rdi
    133b:	be 0a 00 00 00       	mov    $0xa,%esi
    1340:	e8 cb 02 00 00       	call   1610 <_ZStlsISt11char_traitsIcEERSt13basic_ostreamIcT_ES5_c.isra.0>
    1345:	89 ee                	mov    %ebp,%esi
    1347:	48 89 df             	mov    %rbx,%rdi
    134a:	e8 11 fd ff ff       	call   1060 <_ZNSo9_M_insertImEERSoT_@plt>
    134f:	48 89 c7             	mov    %rax,%rdi
    1352:	be 0a 00 00 00       	mov    $0xa,%esi
    1357:	e8 b4 02 00 00       	call   1610 <_ZStlsISt11char_traitsIcEERSt13basic_ostreamIcT_ES5_c.isra.0>
    135c:	4c 89 ef             	mov    %r13,%rdi
    135f:	e8 dc fc ff ff       	call   1040 <_ZNSt14basic_ifstreamIcSt11char_traitsIcEE5closeEv@plt>
    1364:	4c 89 ef             	mov    %r13,%rdi
    1367:	e8 e4 fc ff ff       	call   1050 <_ZNSt14basic_ifstreamIcSt11char_traitsIcEED1Ev@plt>
    136c:	4c 89 e7             	mov    %r12,%rdi
    136f:	e8 4c fd ff ff       	call   10c0 <_ZNSt14basic_ofstreamIcSt11char_traitsIcEED1Ev@plt>
    1374:	48 8b 84 24 18 04 00 	mov    0x418(%rsp),%rax
    137b:	00 
    137c:	64 48 2b 04 25 28 00 	sub    %fs:0x28,%rax
    1383:	00 00 
    1385:	0f 85 56 01 00 00    	jne    14e1 <main+0x3c1>
    138b:	48 81 c4 28 04 00 00 	add    $0x428,%rsp
    1392:	31 c0                	xor    %eax,%eax
    1394:	5b                   	pop    %rbx
    1395:	5d                   	pop    %rbp
    1396:	41 5c                	pop    %r12
    1398:	41 5d                	pop    %r13
    139a:	41 5e                	pop    %r14
    139c:	41 5f                	pop    %r15
    139e:	c3                   	ret
    139f:	48 89 df             	mov    %rbx,%rdi
    13a2:	e8 59 02 00 00       	call   1600 <_ZNSt15basic_streambufIcSt11char_traitsIcEE6sbumpcEv.part.0>
    13a7:	e9 5e ff ff ff       	jmp    130a <main+0x1ea>
    13ac:	48 89 df             	mov    %rbx,%rdi
    13af:	e8 4c 02 00 00       	call   1600 <_ZNSt15basic_streambufIcSt11char_traitsIcEE6sbumpcEv.part.0>
    13b4:	e9 1f ff ff ff       	jmp    12d8 <main+0x1b8>
    13b9:	48 89 df             	mov    %rbx,%rdi
    13bc:	e8 3f 02 00 00       	call   1600 <_ZNSt15basic_streambufIcSt11char_traitsIcEE6sbumpcEv.part.0>
    13c1:	e9 e5 fe ff ff       	jmp    12ab <main+0x18b>
    13c6:	48 89 df             	mov    %rbx,%rdi
    13c9:	e8 32 02 00 00       	call   1600 <_ZNSt15basic_streambufIcSt11char_traitsIcEE6sbumpcEv.part.0>
    13ce:	e9 ae fe ff ff       	jmp    1281 <main+0x161>
    13d3:	4c 89 f7             	mov    %r14,%rdi
    13d6:	e8 25 02 00 00       	call   1600 <_ZNSt15basic_streambufIcSt11char_traitsIcEE6sbumpcEv.part.0>
    13db:	e9 77 fe ff ff       	jmp    1257 <main+0x137>
    13e0:	4c 89 f7             	mov    %r14,%rdi
    13e3:	e8 18 02 00 00       	call   1600 <_ZNSt15basic_streambufIcSt11char_traitsIcEE6sbumpcEv.part.0>
    13e8:	e9 3b fe ff ff       	jmp    1228 <main+0x108>
    13ed:	4c 89 f7             	mov    %r14,%rdi
    13f0:	e8 0b 02 00 00       	call   1600 <_ZNSt15basic_streambufIcSt11char_traitsIcEE6sbumpcEv.part.0>
    13f5:	e9 01 fe ff ff       	jmp    11fb <main+0xdb>
    13fa:	48 8b 03             	mov    (%rbx),%rax
    13fd:	48 89 df             	mov    %rbx,%rdi
    1400:	ff 50 48             	call   *0x48(%rax)
    1403:	41 89 c7             	mov    %eax,%r15d
    1406:	83 c0 01             	add    $0x1,%eax
    1409:	0f 85 cf fd ff ff    	jne    11de <main+0xbe>
    140f:	41 bf ff ff ff ff    	mov    $0xffffffff,%r15d
    1415:	45 31 f6             	xor    %r14d,%r14d
    1418:	e9 c4 fd ff ff       	jmp    11e1 <main+0xc1>
    141d:	48 8b 03             	mov    (%rbx),%rax
    1420:	48 89 df             	mov    %rbx,%rdi
    1423:	ff 50 48             	call   *0x48(%rax)
    1426:	89 c2                	mov    %eax,%edx
    1428:	83 c0 01             	add    $0x1,%eax
    142b:	0f 85 61 fe ff ff    	jne    1292 <main+0x172>
    1431:	ba ff ff ff ff       	mov    $0xffffffff,%edx
    1436:	31 db                	xor    %ebx,%ebx
    1438:	e9 55 fe ff ff       	jmp    1292 <main+0x172>
    143d:	48 8b 03             	mov    (%rbx),%rax
    1440:	48 89 df             	mov    %rbx,%rdi
    1443:	ff 50 48             	call   *0x48(%rax)
    1446:	89 c2                	mov    %eax,%edx
    1448:	83 c0 01             	add    $0x1,%eax
    144b:	0f 85 6b fe ff ff    	jne    12bc <main+0x19c>
    1451:	ba ff ff ff ff       	mov    $0xffffffff,%edx
    1456:	31 db                	xor    %ebx,%ebx
    1458:	e9 5f fe ff ff       	jmp    12bc <main+0x19c>
    145d:	49 8b 06             	mov    (%r14),%rax
    1460:	4c 89 f7             	mov    %r14,%rdi
    1463:	ff 50 48             	call   *0x48(%rax)
    1466:	89 c2                	mov    %eax,%edx
    1468:	83 c0 01             	add    $0x1,%eax
    146b:	0f 85 c8 fd ff ff    	jne    1239 <main+0x119>
    1471:	ba ff ff ff ff       	mov    $0xffffffff,%edx
    1476:	45 31 f6             	xor    %r14d,%r14d
    1479:	e9 bb fd ff ff       	jmp    1239 <main+0x119>
    147e:	49 8b 06             	mov    (%r14),%rax
    1481:	4c 89 f7             	mov    %r14,%rdi
    1484:	ff 50 48             	call   *0x48(%rax)
    1487:	e9 dc fd ff ff       	jmp    1268 <main+0x148>
    148c:	48 8b 03             	mov    (%rbx),%rax
    148f:	48 89 df             	mov    %rbx,%rdi
    1492:	ff 50 48             	call   *0x48(%rax)
    1495:	89 c2                	mov    %eax,%edx
    1497:	0f b6 c0             	movzbl %al,%eax
    149a:	83 c2 01             	add    $0x1,%edx
    149d:	0f 85 46 fe ff ff    	jne    12e9 <main+0x1c9>
    14a3:	b8 ff 00 00 00       	mov    $0xff,%eax
    14a8:	31 db                	xor    %ebx,%ebx
    14aa:	e9 3a fe ff ff       	jmp    12e9 <main+0x1c9>
    14af:	48 8b 03             	mov    (%rbx),%rax
    14b2:	48 89 df             	mov    %rbx,%rdi
    14b5:	ff 50 48             	call   *0x48(%rax)
    14b8:	e9 5e fe ff ff       	jmp    131b <main+0x1fb>
    14bd:	49 8b 06             	mov    (%r14),%rax
    14c0:	4c 89 f7             	mov    %r14,%rdi
    14c3:	ff 50 48             	call   *0x48(%rax)
    14c6:	89 c2                	mov    %eax,%edx
    14c8:	0f b6 c0             	movzbl %al,%eax
    14cb:	83 c2 01             	add    $0x1,%edx
    14ce:	0f 85 38 fd ff ff    	jne    120c <main+0xec>
    14d4:	b8 ff 00 00 00       	mov    $0xff,%eax
    14d9:	45 31 f6             	xor    %r14d,%r14d
    14dc:	e9 2b fd ff ff       	jmp    120c <main+0xec>
    14e1:	e8 9a fb ff ff       	call   1080 <__stack_chk_fail@plt>
    14e6:	48 89 c3             	mov    %rax,%rbx
    14e9:	e9 0a fc ff ff       	jmp    10f8 <main.cold+0x8>
    14ee:	48 89 c3             	mov    %rax,%rbx
    14f1:	e9 fa fb ff ff       	jmp    10f0 <main.cold>
    14f6:	66 2e 0f 1f 84 00 00 	cs nopw 0x0(%rax,%rax,1)
    14fd:	00 00 00 

0000000000001500 <_start>:
    1500:	f3 0f 1e fa          	endbr64
    1504:	31 ed                	xor    %ebp,%ebp
    1506:	49 89 d1             	mov    %rdx,%r9
    1509:	5e                   	pop    %rsi
    150a:	48 89 e2             	mov    %rsp,%rdx
    150d:	48 83 e4 f0          	and    $0xfffffffffffffff0,%rsp
    1511:	50                   	push   %rax
    1512:	54                   	push   %rsp
    1513:	45 31 c0             	xor    %r8d,%r8d
    1516:	31 c9                	xor    %ecx,%ecx
    1518:	48 8d 3d 01 fc ff ff 	lea    -0x3ff(%rip),%rdi        # 1120 <main>
    151f:	ff 15 a3 2a 00 00    	call   *0x2aa3(%rip)        # 3fc8 <__libc_start_main@GLIBC_2.34>
    1525:	f4                   	hlt
    1526:	66 2e 0f 1f 84 00 00 	cs nopw 0x0(%rax,%rax,1)
    152d:	00 00 00 
    1530:	48 8d 3d 41 2b 00 00 	lea    0x2b41(%rip),%rdi        # 4078 <__TMC_END__>
    1537:	48 8d 05 3a 2b 00 00 	lea    0x2b3a(%rip),%rax        # 4078 <__TMC_END__>
    153e:	48 39 f8             	cmp    %rdi,%rax
    1541:	74 15                	je     1558 <_start+0x58>
    1543:	48 8b 05 86 2a 00 00 	mov    0x2a86(%rip),%rax        # 3fd0 <_ITM_deregisterTMCloneTable@Base>
    154a:	48 85 c0             	test   %rax,%rax
    154d:	74 09                	je     1558 <_start+0x58>
    154f:	ff e0                	jmp    *%rax
    1551:	0f 1f 80 00 00 00 00 	nopl   0x0(%rax)
    1558:	c3                   	ret
    1559:	0f 1f 80 00 00 00 00 	nopl   0x0(%rax)
    1560:	48 8d 3d 11 2b 00 00 	lea    0x2b11(%rip),%rdi        # 4078 <__TMC_END__>
    1567:	48 8d 35 0a 2b 00 00 	lea    0x2b0a(%rip),%rsi        # 4078 <__TMC_END__>
    156e:	48 29 fe             	sub    %rdi,%rsi
    1571:	48 89 f0             	mov    %rsi,%rax
    1574:	48 c1 ee 3f          	shr    $0x3f,%rsi
    1578:	48 c1 f8 03          	sar    $0x3,%rax
    157c:	48 01 c6             	add    %rax,%rsi
    157f:	48 d1 fe             	sar    $1,%rsi
    1582:	74 14                	je     1598 <_start+0x98>
    1584:	48 8b 05 55 2a 00 00 	mov    0x2a55(%rip),%rax        # 3fe0 <_ITM_registerTMCloneTable@Base>
    158b:	48 85 c0             	test   %rax,%rax
    158e:	74 08                	je     1598 <_start+0x98>
    1590:	ff e0                	jmp    *%rax
    1592:	66 0f 1f 44 00 00    	nopw   0x0(%rax,%rax,1)
    1598:	c3                   	ret
    1599:	0f 1f 80 00 00 00 00 	nopl   0x0(%rax)
    15a0:	f3 0f 1e fa          	endbr64
    15a4:	80 3d e5 2b 00 00 00 	cmpb   $0x0,0x2be5(%rip)        # 4190 <_ZSt4cout@GLIBCXX_3.4+0x110>
    15ab:	75 33                	jne    15e0 <_start+0xe0>
    15ad:	55                   	push   %rbp
    15ae:	48 83 3d 0a 2a 00 00 	cmpq   $0x0,0x2a0a(%rip)        # 3fc0 <__cxa_finalize@GLIBC_2.2.5>
    15b5:	00 
    15b6:	48 89 e5             	mov    %rsp,%rbp
    15b9:	74 0d                	je     15c8 <_start+0xc8>
    15bb:	48 8b 3d a6 2a 00 00 	mov    0x2aa6(%rip),%rdi        # 4068 <__dso_handle>
    15c2:	ff 15 f8 29 00 00    	call   *0x29f8(%rip)        # 3fc0 <__cxa_finalize@GLIBC_2.2.5>
    15c8:	e8 63 ff ff ff       	call   1530 <_start+0x30>
    15cd:	c6 05 bc 2b 00 00 01 	movb   $0x1,0x2bbc(%rip)        # 4190 <_ZSt4cout@GLIBCXX_3.4+0x110>
    15d4:	5d                   	pop    %rbp
    15d5:	c3                   	ret
    15d6:	66 2e 0f 1f 84 00 00 	cs nopw 0x0(%rax,%rax,1)
    15dd:	00 00 00 
    15e0:	c3                   	ret
    15e1:	66 66 2e 0f 1f 84 00 	data16 cs nopw 0x0(%rax,%rax,1)
    15e8:	00 00 00 00 
    15ec:	0f 1f 40 00          	nopl   0x0(%rax)
    15f0:	f3 0f 1e fa          	endbr64
    15f4:	e9 67 ff ff ff       	jmp    1560 <_start+0x60>
    15f9:	0f 1f 80 00 00 00 00 	nopl   0x0(%rax)

0000000000001600 <_ZNSt15basic_streambufIcSt11char_traitsIcEE6sbumpcEv.part.0>:
    1600:	48 8b 07             	mov    (%rdi),%rax
    1603:	ff 60 50             	jmp    *0x50(%rax)
    1606:	66 2e 0f 1f 84 00 00 	cs nopw 0x0(%rax,%rax,1)
    160d:	00 00 00 

0000000000001610 <_ZStlsISt11char_traitsIcEERSt13basic_ostreamIcT_ES5_c.isra.0>:
    1610:	48 83 ec 18          	sub    $0x18,%rsp
    1614:	48 8b 07             	mov    (%rdi),%rax
    1617:	40 88 74 24 0c       	mov    %sil,0xc(%rsp)
    161c:	48 8b 40 e8          	mov    -0x18(%rax),%rax
    1620:	48 83 7c 07 10 00    	cmpq   $0x0,0x10(%rdi,%rax,1)
    1626:	74 14                	je     163c <_ZStlsISt11char_traitsIcEERSt13basic_ostreamIcT_ES5_c.isra.0+0x2c>
    1628:	48 8d 74 24 0c       	lea    0xc(%rsp),%rsi
    162d:	ba 01 00 00 00       	mov    $0x1,%edx
    1632:	e8 59 fa ff ff       	call   1090 <_ZSt16__ostream_insertIcSt11char_traitsIcEERSt13basic_ostreamIT_T0_ES6_PKS3_l@plt>
    1637:	48 83 c4 18          	add    $0x18,%rsp
    163b:	c3                   	ret
    163c:	0f be 74 24 0c       	movsbl 0xc(%rsp),%esi
    1641:	e8 ea f9 ff ff       	call   1030 <_ZNSo3putEc@plt>
    1646:	eb ef                	jmp    1637 <_ZStlsISt11char_traitsIcEERSt13basic_ostreamIcT_ES5_c.isra.0+0x27>

Disassembly of section .fini:

0000000000001648 <_fini>:
    1648:	f3 0f 1e fa          	endbr64
    164c:	48 83 ec 08          	sub    $0x8,%rsp
    1650:	48 83 c4 08          	add    $0x8,%rsp
    1654:	c3                   	ret
